; Function Attrs: mustprogress uwtable
define noundef ptr @_ZNK5faiss23IndexIVFScalarQuantizer23get_InvertedListScannerEbPKNS_10IDSelectorE(ptr noundef nonnull align 8 dereferenceable(336) %0, i1 noundef zeroext %1, ptr noundef %2) unnamed_addr #1 align 2 {
  %4 = getelementptr inbounds i8, ptr %0, i64 264
  %5 = getelementptr inbounds i8, ptr %0, i64 28
  %6 = load i32, ptr %5, align 4
  %7 = getelementptr inbounds i8, ptr %0, i64 48
  %8 = load ptr, ptr %7, align 8
  %9 = getelementptr inbounds i8, ptr %0, i64 256
  %10 = load i8, ptr %9, align 8
  %11 = and i8 %10, 1
  %12 = icmp ne i8 %11, 0
  %13 = tail call noundef ptr @_ZNK5faiss15ScalarQuantizer26select_InvertedListScannerENS_10MetricTypeEPKNS_5IndexEbPKNS_10IDSelectorEb(ptr noundef nonnull align 8 dereferenceable(72) %4, i32 noundef %6, ptr noundef %8, i1 noundef zeroext %1, ptr noundef %2, i1 noundef zeroext %12)
  ret ptr %13
}